; Function Attrs: nounwind uwtable
define internal range(i32 -30, 1) i32 @file_switch(ptr noundef %0, ptr noundef captures(none) %1, ptr noundef %2) #0 {
  %4 = load i32, ptr %1, align 8
  %5 = icmp sgt i32 %4, -1
  br i1 %5, label %6, label %file_close2.exit

6:                                                ; preds = %3
  %7 = getelementptr inbounds nuw i8, ptr %1, i64 24
  %8 = load i32, ptr %7, align 8
  %9 = trunc i32 %8 to i16
  %trunc.i = and i16 %9, -4096
  switch i16 %trunc.i, label %.preheader.i [
    i16 -32768, label %.loopexit.i
    i16 8192, label %.loopexit.i
    i16 24576, label %.loopexit.i
  ]

.preheader.i:                                     ; preds = %6
  %10 = getelementptr inbounds nuw i8, ptr %1, i64 16
  %11 = getelementptr inbounds nuw i8, ptr %1, i64 8
  br label %12

12:                                               ; preds = %12, %.preheader.i
  %13 = load i32, ptr %1, align 8
  %14 = load ptr, ptr %10, align 8
  %15 = load i64, ptr %11, align 8
  %16 = tail call i64 @read(i32 noundef %13, ptr noundef %14, i64 noundef %15) #14
  %17 = icmp sgt i64 %16, 0
  br i1 %17, label %12, label %.loopexit.i, !llvm.loop !8

.loopexit.i:                                      ; preds = %12, %6, %6, %6
  %18 = getelementptr inbounds nuw i8, ptr %1, i64 32
  %19 = load i32, ptr %18, align 8
  %.not.i = icmp eq i32 %19, 0
  br i1 %.not.i, label %file_close2.exit, label %20

20:                                               ; preds = %.loopexit.i
  %21 = load i32, ptr %1, align 8
  %22 = tail call i32 @close(i32 noundef %21) #14
  br label %file_close2.exit

file_close2.exit:                                 ; preds = %3, %.loopexit.i, %20
  %23 = getelementptr inbounds nuw i8, ptr %1, i64 16
  %24 = load ptr, ptr %23, align 8
  tail call void @free(ptr noundef %24) #14
  store ptr null, ptr %23, align 8
  store i32 -1, ptr %1, align 8
  %25 = tail call i32 @file_open(ptr noundef %0, ptr noundef %2)
  ret i32 %25
}